target datalayout = "e-m:e-p270:32:32-p271:32:32-p272:64:64-i64:64-i128:128-f80:128-n8:16:32:64-S128"
target triple = "x86_64-pc-linux-gnu"

%struct.test_fixture = type { ptr, ptr, ptr, i32, i32, ptr }

@client_cert = internal global ptr null, align 8
@.str.14 = private unnamed_addr constant [34 x i8] c"../openssl/test/cmp_client_test.c\00", align 1
@.str.64 = private unnamed_addr constant [7 x i8] c"status\00", align 1
@.str.65 = private unnamed_addr constant [18 x i8] c"fixture->expected\00", align 1
@.str.66 = private unnamed_addr constant [25 x i8] c"OSSL_CMP_PKISTATUS_trans\00", align 1
@.str.67 = private unnamed_addr constant [4 x i8] c"res\00", align 1
@.str.68 = private unnamed_addr constant [27 x i8] c"X509_cmp(res, client_cert)\00", align 1
@.str.69 = private unnamed_addr constant [2 x i8] c"0\00", align 1
@.str.70 = private unnamed_addr constant [43 x i8] c"STACK_OF_X509_cmp(fixture->caPubs, caPubs)\00", align 1

; Function Attrs: nounwind uwtable
define internal i32 @execute_exec_certrequest_ses_test(ptr noundef %0) #0 {
  %2 = alloca i32, align 4
  %3 = alloca ptr, align 8
  %4 = alloca ptr, align 8
  %5 = alloca ptr, align 8
  %6 = alloca i32, align 4
  %7 = alloca i32, align 4
  %8 = alloca ptr, align 8
  %9 = alloca i32, align 4
  store ptr %0, ptr %3, align 8, !tbaa !17
  call void @llvm.lifetime.start.p0(i64 8, ptr %4) #4
  %10 = load ptr, ptr %3, align 8, !tbaa !17
  %11 = getelementptr inbounds nuw %struct.test_fixture, ptr %10, i32 0, i32 1
  %12 = load ptr, ptr %11, align 8, !tbaa !29
  store ptr %12, ptr %4, align 8, !tbaa !30
  call void @llvm.lifetime.start.p0(i64 8, ptr %5) #4
  %13 = load ptr, ptr %4, align 8, !tbaa !30
  %14 = load ptr, ptr %3, align 8, !tbaa !17
  %15 = getelementptr inbounds nuw %struct.test_fixture, ptr %14, i32 0, i32 3
  %16 = load i32, ptr %15, align 8, !tbaa !27
  %17 = call ptr @OSSL_CMP_exec_certreq(ptr noundef %13, i32 noundef %16, ptr noundef null)
  store ptr %17, ptr %5, align 8, !tbaa !4
  call void @llvm.lifetime.start.p0(i64 4, ptr %6) #4
  %18 = load ptr, ptr %4, align 8, !tbaa !30
  %19 = call i32 @OSSL_CMP_CTX_get_status(ptr noundef %18)
  store i32 %19, ptr %6, align 4, !tbaa !19
  %20 = load ptr, ptr %4, align 8, !tbaa !30
  call void @OSSL_CMP_CTX_print_errors(ptr noundef %20)
  %21 = load i32, ptr %6, align 4, !tbaa !19
  %22 = load ptr, ptr %3, align 8, !tbaa !17
  %23 = getelementptr inbounds nuw %struct.test_fixture, ptr %22, i32 0, i32 4
  %24 = load i32, ptr %23, align 4, !tbaa !26
  %25 = call i32 @test_int_eq(ptr noundef @.str.14, i32 noundef 131, ptr noundef @.str.64, ptr noundef @.str.65, i32 noundef %21, i32 noundef %24)
  %26 = icmp ne i32 %25, 0
  br i1 %26, label %37, label %27

27:                                               ; preds = %1
  %28 = load ptr, ptr %3, align 8, !tbaa !17
  %29 = getelementptr inbounds nuw %struct.test_fixture, ptr %28, i32 0, i32 4
  %30 = load i32, ptr %29, align 4, !tbaa !26
  %31 = icmp eq i32 %30, 3
  br i1 %31, label %32, label %36

32:                                               ; preds = %27
  %33 = load i32, ptr %6, align 4, !tbaa !19
  %34 = call i32 @test_int_eq(ptr noundef @.str.14, i32 noundef 133, ptr noundef @.str.64, ptr noundef @.str.66, i32 noundef %33, i32 noundef -2)
  %35 = icmp ne i32 %34, 0
  br i1 %35, label %37, label %36

36:                                               ; preds = %32, %27
  store i32 0, ptr %2, align 4
  store i32 1, ptr %7, align 4
  br label %75

37:                                               ; preds = %32, %1
  %38 = load ptr, ptr %3, align 8, !tbaa !17
  %39 = getelementptr inbounds nuw %struct.test_fixture, ptr %38, i32 0, i32 4
  %40 = load i32, ptr %39, align 4, !tbaa !26
  %41 = icmp ne i32 %40, 0
  br i1 %41, label %42, label %45

42:                                               ; preds = %37
  %43 = load ptr, ptr %5, align 8, !tbaa !4
  %44 = call i32 @test_ptr_null(ptr noundef @.str.14, i32 noundef 136, ptr noundef @.str.67, ptr noundef %43)
  store i32 %44, ptr %2, align 4
  store i32 1, ptr %7, align 4
  br label %75

45:                                               ; preds = %37
  %46 = load ptr, ptr %5, align 8, !tbaa !4
  %47 = call i32 @test_ptr(ptr noundef @.str.14, i32 noundef 138, ptr noundef @.str.67, ptr noundef %46)
  %48 = icmp ne i32 %47, 0
  br i1 %48, label %49, label %55

49:                                               ; preds = %45
  %50 = load ptr, ptr %5, align 8, !tbaa !4
  %51 = load ptr, ptr @client_cert, align 8, !tbaa !4
  %52 = call i32 @X509_cmp(ptr noundef %50, ptr noundef %51)
  %53 = call i32 @test_int_eq(ptr noundef @.str.14, i32 noundef 138, ptr noundef @.str.68, ptr noundef @.str.69, i32 noundef %52, i32 noundef 0)
  %54 = icmp ne i32 %53, 0
  br i1 %54, label %56, label %55

55:                                               ; preds = %49, %45
  store i32 0, ptr %2, align 4
  store i32 1, ptr %7, align 4
  br label %75

56:                                               ; preds = %49
  %57 = load ptr, ptr %3, align 8, !tbaa !17
  %58 = getelementptr inbounds nuw %struct.test_fixture, ptr %57, i32 0, i32 5
  %59 = load ptr, ptr %58, align 8, !tbaa !28
  %60 = icmp ne ptr %59, null
  br i1 %60, label %61, label %74

61:                                               ; preds = %56
  call void @llvm.lifetime.start.p0(i64 8, ptr %8) #4
  %62 = load ptr, ptr %3, align 8, !tbaa !17
  %63 = getelementptr inbounds nuw %struct.test_fixture, ptr %62, i32 0, i32 1
  %64 = load ptr, ptr %63, align 8, !tbaa !29
  %65 = call ptr @OSSL_CMP_CTX_get1_caPubs(ptr noundef %64)
  store ptr %65, ptr %8, align 8, !tbaa !32
  call void @llvm.lifetime.start.p0(i64 4, ptr %9) #4
  %66 = load ptr, ptr %3, align 8, !tbaa !17
  %67 = getelementptr inbounds nuw %struct.test_fixture, ptr %66, i32 0, i32 5
  %68 = load ptr, ptr %67, align 8, !tbaa !28
  %69 = load ptr, ptr %8, align 8, !tbaa !32
  %70 = call i32 @STACK_OF_X509_cmp(ptr noundef %68, ptr noundef %69)
  %71 = call i32 @test_int_eq(ptr noundef @.str.14, i32 noundef 142, ptr noundef @.str.70, ptr noundef @.str.69, i32 noundef %70, i32 noundef 0)
  store i32 %71, ptr %9, align 4, !tbaa !19
  %72 = load ptr, ptr %8, align 8, !tbaa !32
  call void @OSSL_STACK_OF_X509_free(ptr noundef %72)
  %73 = load i32, ptr %9, align 4, !tbaa !19
  store i32 %73, ptr %2, align 4
  store i32 1, ptr %7, align 4
  call void @llvm.lifetime.end.p0(i64 4, ptr %9) #4
  call void @llvm.lifetime.end.p0(i64 8, ptr %8) #4
  br label %75

74:                                               ; preds = %56
  store i32 1, ptr %2, align 4
  store i32 1, ptr %7, align 4
  br label %75

75:                                               ; preds = %74, %61, %55, %42, %36
  call void @llvm.lifetime.end.p0(i64 4, ptr %6) #4
  call void @llvm.lifetime.end.p0(i64 8, ptr %5) #4
  call void @llvm.lifetime.end.p0(i64 8, ptr %4) #4
  %76 = load i32, ptr %2, align 4
  ret i32 %76
}