; Function Attrs: nounwind uwtable
define internal fastcc i32 @execute_exec_certrequest_ses_test(ptr noundef nonnull readonly captures(none) %0) unnamed_addr #0 {
  %2 = getelementptr inbounds nuw i8, ptr %0, i64 8
  %3 = load ptr, ptr %2, align 8, !tbaa !23
  %4 = getelementptr inbounds nuw i8, ptr %0, i64 24
  %5 = load i32, ptr %4, align 8, !tbaa !26
  %6 = tail call ptr @OSSL_CMP_exec_certreq(ptr noundef %3, i32 noundef %5, ptr noundef null) #4
  %7 = tail call i32 @OSSL_CMP_CTX_get_status(ptr noundef %3) #4
  tail call void @OSSL_CMP_CTX_print_errors(ptr noundef %3) #4
  %8 = getelementptr inbounds nuw i8, ptr %0, i64 28
  %9 = load i32, ptr %8, align 4, !tbaa !17
  %10 = tail call i32 @test_int_eq(ptr noundef nonnull @.str.14, i32 noundef 131, ptr noundef nonnull @.str.64, ptr noundef nonnull @.str.65, i32 noundef %7, i32 noundef %9) #4
  %.not = icmp eq i32 %10, 0
  br i1 %.not, label %11, label %16

11:                                               ; preds = %1
  %12 = load i32, ptr %8, align 4, !tbaa !17
  %13 = icmp eq i32 %12, 3
  br i1 %13, label %14, label %35

14:                                               ; preds = %11
  %15 = tail call i32 @test_int_eq(ptr noundef nonnull @.str.14, i32 noundef 133, ptr noundef nonnull @.str.64, ptr noundef nonnull @.str.66, i32 noundef %7, i32 noundef -2) #4
  %.not19 = icmp eq i32 %15, 0
  br i1 %.not19, label %35, label %16

16:                                               ; preds = %14, %1
  %17 = load i32, ptr %8, align 4, !tbaa !17
  %.not20 = icmp eq i32 %17, 0
  br i1 %.not20, label %20, label %18

18:                                               ; preds = %16
  %19 = tail call i32 @test_ptr_null(ptr noundef nonnull @.str.14, i32 noundef 136, ptr noundef nonnull @.str.67, ptr noundef %6) #4
  br label %35

20:                                               ; preds = %16
  %21 = tail call i32 @test_ptr(ptr noundef nonnull @.str.14, i32 noundef 138, ptr noundef nonnull @.str.67, ptr noundef %6) #4
  %.not21 = icmp eq i32 %21, 0
  br i1 %.not21, label %35, label %22

22:                                               ; preds = %20
  %23 = load ptr, ptr @client_cert, align 8, !tbaa !4
  %24 = tail call i32 @X509_cmp(ptr noundef %6, ptr noundef %23) #4
  %25 = tail call i32 @test_int_eq(ptr noundef nonnull @.str.14, i32 noundef 138, ptr noundef nonnull @.str.68, ptr noundef nonnull @.str.69, i32 noundef %24, i32 noundef 0) #4
  %.not22 = icmp eq i32 %25, 0
  br i1 %.not22, label %35, label %26

26:                                               ; preds = %22
  %27 = getelementptr inbounds nuw i8, ptr %0, i64 32
  %28 = load ptr, ptr %27, align 8, !tbaa !25
  %.not23 = icmp eq ptr %28, null
  br i1 %.not23, label %35, label %29

29:                                               ; preds = %26
  %30 = load ptr, ptr %2, align 8, !tbaa !23
  %31 = tail call ptr @OSSL_CMP_CTX_get1_caPubs(ptr noundef %30) #4
  %32 = load ptr, ptr %27, align 8, !tbaa !25
  %33 = tail call i32 @STACK_OF_X509_cmp(ptr noundef %32, ptr noundef %31) #4
  %34 = tail call i32 @test_int_eq(ptr noundef nonnull @.str.14, i32 noundef 142, ptr noundef nonnull @.str.70, ptr noundef nonnull @.str.69, i32 noundef %33, i32 noundef 0) #4
  tail call void @OSSL_STACK_OF_X509_free(ptr noundef %31) #4
  br label %35

35:                                               ; preds = %26, %20, %22, %11, %14, %29, %18
  %.0 = phi i32 [ %19, %18 ], [ %34, %29 ], [ 0, %14 ], [ 0, %11 ], [ 0, %22 ], [ 0, %20 ], [ 1, %26 ]
  ret i32 %.0
}